target datalayout = "e-m:e-p270:32:32-p271:32:32-p272:64:64-i64:64-i128:128-f80:128-n8:16:32:64-S128"
target triple = "x86_64-pc-linux-gnu"

%struct.Vec_Int_t_ = type { i32, i32, ptr }

@.str = private unnamed_addr constant [13 x i8] c"Constant %d\0A\00", align 1
@.str.1 = private unnamed_addr constant [2 x i8] c"0\00", align 1
@.str.2 = private unnamed_addr constant [2 x i8] c"1\00", align 1
@.str.3 = private unnamed_addr constant [2 x i8] c"-\00", align 1
@.str.4 = private unnamed_addr constant [5 x i8] c" %d\0A\00", align 1

; Function Attrs: inlinehint nounwind uwtable
define internal i32 @Vec_IntEntry(ptr noundef %0, i32 noundef %1) #2 {
  %3 = alloca ptr, align 8
  %4 = alloca i32, align 4
  store ptr %0, ptr %3, align 8, !tbaa !25
  store i32 %1, ptr %4, align 4, !tbaa !10
  %5 = load ptr, ptr %3, align 8, !tbaa !25
  %6 = getelementptr inbounds nuw %struct.Vec_Int_t_, ptr %5, i32 0, i32 2
  %7 = load ptr, ptr %6, align 8, !tbaa !34
  %8 = load i32, ptr %4, align 4, !tbaa !10
  %9 = sext i32 %8 to i64
  %10 = getelementptr inbounds i32, ptr %7, i64 %9
  %11 = load i32, ptr %10, align 4, !tbaa !10
  ret i32 %11
}

; Function Attrs: inlinehint nounwind uwtable
define internal i32 @Vec_IntSize(ptr noundef %0) #2 {
  %2 = alloca ptr, align 8
  store ptr %0, ptr %2, align 8, !tbaa !25
  %3 = load ptr, ptr %2, align 8, !tbaa !25
  %4 = getelementptr inbounds nuw %struct.Vec_Int_t_, ptr %3, i32 0, i32 1
  %5 = load i32, ptr %4, align 4, !tbaa !32
  ret i32 %5
}

; Function Attrs: nounwind uwtable
define void @Abc_IsopPrintCover(ptr noundef %0, i32 noundef %1, i32 noundef %2) #0 {
  %4 = alloca ptr, align 8
  %5 = alloca i32, align 4
  %6 = alloca i32, align 4
  %7 = alloca i32, align 4
  %8 = alloca i32, align 4
  %9 = alloca i32, align 4
  %10 = alloca i32, align 4
  %11 = alloca i32, align 4
  store ptr %0, ptr %4, align 8, !tbaa !25
  store i32 %1, ptr %5, align 4, !tbaa !10
  store i32 %2, ptr %6, align 4, !tbaa !10
  call void @llvm.lifetime.start.p0(i64 4, ptr %7) #9
  call void @llvm.lifetime.start.p0(i64 4, ptr %8) #9
  call void @llvm.lifetime.start.p0(i64 4, ptr %9) #9
  call void @llvm.lifetime.start.p0(i64 4, ptr %10) #9
  %12 = load ptr, ptr %4, align 8, !tbaa !25
  %13 = call i32 @Vec_IntSize(ptr noundef %12)
  %14 = icmp eq i32 %13, 0
  br i1 %14, label %23, label %15

15:                                               ; preds = %3
  %16 = load ptr, ptr %4, align 8, !tbaa !25
  %17 = call i32 @Vec_IntSize(ptr noundef %16)
  %18 = icmp eq i32 %17, 1
  br i1 %18, label %19, label %27

19:                                               ; preds = %15
  %20 = load ptr, ptr %4, align 8, !tbaa !25
  %21 = call i32 @Vec_IntEntry(ptr noundef %20, i32 noundef 0)
  %22 = icmp eq i32 %21, 0
  br i1 %22, label %23, label %27

23:                                               ; preds = %19, %3
  %24 = load ptr, ptr %4, align 8, !tbaa !25
  %25 = call i32 @Vec_IntSize(ptr noundef %24)
  %26 = call i32 (ptr, ...) @printf(ptr noundef @.str, i32 noundef %25)
  store i32 1, ptr %11, align 4
  br label %81

27:                                               ; preds = %19, %15
  store i32 0, ptr %7, align 4, !tbaa !10
  br label %28

28:                                               ; preds = %77, %27
  %29 = load i32, ptr %7, align 4, !tbaa !10
  %30 = load ptr, ptr %4, align 8, !tbaa !25
  %31 = call i32 @Vec_IntSize(ptr noundef %30)
  %32 = icmp slt i32 %29, %31
  br i1 %32, label %33, label %37

33:                                               ; preds = %28
  %34 = load ptr, ptr %4, align 8, !tbaa !25
  %35 = load i32, ptr %7, align 4, !tbaa !10
  %36 = call i32 @Vec_IntEntry(ptr noundef %34, i32 noundef %35)
  store i32 %36, ptr %9, align 4, !tbaa !10
  br label %37

37:                                               ; preds = %33, %28
  %38 = phi i1 [ false, %28 ], [ true, %33 ]
  br i1 %38, label %39, label %80

39:                                               ; preds = %37
  store i32 0, ptr %8, align 4, !tbaa !10
  br label %40

40:                                               ; preds = %68, %39
  %41 = load i32, ptr %8, align 4, !tbaa !10
  %42 = load i32, ptr %5, align 4, !tbaa !10
  %43 = icmp slt i32 %41, %42
  br i1 %43, label %44, label %71

44:                                               ; preds = %40
  %45 = load i32, ptr %9, align 4, !tbaa !10
  %46 = load i32, ptr %8, align 4, !tbaa !10
  %47 = shl i32 %46, 1
  %48 = ashr i32 %45, %47
  %49 = and i32 3, %48
  store i32 %49, ptr %10, align 4, !tbaa !10
  %50 = load i32, ptr %10, align 4, !tbaa !10
  %51 = icmp eq i32 %50, 1
  br i1 %51, label %52, label %54

52:                                               ; preds = %44
  %53 = call i32 (ptr, ...) @printf(ptr noundef @.str.1)
  br label %67

54:                                               ; preds = %44
  %55 = load i32, ptr %10, align 4, !tbaa !10
  %56 = icmp eq i32 %55, 2
  br i1 %56, label %57, label %59

57:                                               ; preds = %54
  %58 = call i32 (ptr, ...) @printf(ptr noundef @.str.2)
  br label %66

59:                                               ; preds = %54
  %60 = load i32, ptr %10, align 4, !tbaa !10
  %61 = icmp eq i32 %60, 0
  br i1 %61, label %62, label %64

62:                                               ; preds = %59
  %63 = call i32 (ptr, ...) @printf(ptr noundef @.str.3)
  br label %65

64:                                               ; preds = %59
  br label %65

65:                                               ; preds = %64, %62
  br label %66

66:                                               ; preds = %65, %57
  br label %67

67:                                               ; preds = %66, %52
  br label %68

68:                                               ; preds = %67
  %69 = load i32, ptr %8, align 4, !tbaa !10
  %70 = add nsw i32 %69, 1
  store i32 %70, ptr %8, align 4, !tbaa !10
  br label %40, !llvm.loop !48

71:                                               ; preds = %40
  %72 = load i32, ptr %6, align 4, !tbaa !10
  %73 = icmp ne i32 %72, 0
  %74 = xor i1 %73, true
  %75 = zext i1 %74 to i32
  %76 = call i32 (ptr, ...) @printf(ptr noundef @.str.4, i32 noundef %75)
  br label %77

77:                                               ; preds = %71
  %78 = load i32, ptr %7, align 4, !tbaa !10
  %79 = add nsw i32 %78, 1
  store i32 %79, ptr %7, align 4, !tbaa !10
  br label %28, !llvm.loop !49

80:                                               ; preds = %37
  store i32 0, ptr %11, align 4
  br label %81

81:                                               ; preds = %80, %23
  call void @llvm.lifetime.end.p0(i64 4, ptr %10) #9
  call void @llvm.lifetime.end.p0(i64 4, ptr %9) #9
  call void @llvm.lifetime.end.p0(i64 4, ptr %8) #9
  call void @llvm.lifetime.end.p0(i64 4, ptr %7) #9
  %82 = load i32, ptr %11, align 4
  switch i32 %82, label %84 [
    i32 0, label %83
    i32 1, label %83
  ]

83:                                               ; preds = %81, %81
  ret void

84:                                               ; preds = %81
  unreachable
}