; Function Attrs: nofree nounwind uwtable
define void @Abc_IsopPrintCover(ptr noundef readonly captures(none) %0, i32 noundef %1, i32 noundef %2) local_unnamed_addr #5 {
  %4 = getelementptr i8, ptr %0, i64 4
  %.val23 = load i32, ptr %4, align 4, !tbaa !26
  switch i32 %.val23, label %11 [
    i32 0, label %9
    i32 1, label %5
  ]

5:                                                ; preds = %3
  %6 = getelementptr i8, ptr %0, i64 8
  %.val25 = load ptr, ptr %6, align 8, !tbaa !29
  %7 = load i32, ptr %.val25, align 4, !tbaa !7
  %8 = icmp eq i32 %7, 0
  br i1 %8, label %9, label %.lr.ph30

9:                                                ; preds = %3, %5
  %10 = tail call i32 (ptr, ...) @printf(ptr noundef nonnull dereferenceable(1) @.str, i32 noundef %.val23)
  br label %.critedge

11:                                               ; preds = %3
  %12 = icmp sgt i32 %.val23, 0
  br i1 %12, label %.lr.ph30, label %.critedge

.lr.ph30:                                         ; preds = %5, %11
  %13 = getelementptr i8, ptr %0, i64 8
  %14 = icmp sgt i32 %1, 0
  %.not = icmp eq i32 %2, 0
  %15 = zext i1 %.not to i32
  br i1 %14, label %.lr.ph.us, label %.lr.ph30.split

.lr.ph.us:                                        ; preds = %.lr.ph30, %._crit_edge.us
  %indvars.iv = phi i64 [ %indvars.iv.next, %._crit_edge.us ], [ 0, %.lr.ph30 ]
  %.val24.us = load ptr, ptr %13, align 8, !tbaa !29
  %16 = getelementptr inbounds nuw i32, ptr %.val24.us, i64 %indvars.iv
  %17 = load i32, ptr %16, align 4, !tbaa !7
  br label %18

18:                                               ; preds = %.lr.ph.us, %24
  %.01726.us = phi i32 [ 0, %.lr.ph.us ], [ %25, %24 ]
  %19 = shl nuw i32 %.01726.us, 1
  %20 = ashr i32 %17, %19
  %21 = and i32 %20, 3
  switch i32 %21, label %default.unreachable [
    i32 1, label %23
    i32 2, label %22
    i32 0, label %.sink.split
    i32 3, label %24
  ]

22:                                               ; preds = %18
  br label %.sink.split

23:                                               ; preds = %18
  br label %.sink.split

.sink.split:                                      ; preds = %18, %22, %23
  %.sink = phi i32 [ 48, %23 ], [ 49, %22 ], [ 45, %18 ]
  %putchar20.us = tail call i32 @putchar(i32 %.sink)
  br label %24

24:                                               ; preds = %.sink.split, %18
  %25 = add nuw nsw i32 %.01726.us, 1
  %exitcond.not = icmp eq i32 %25, %1
  br i1 %exitcond.not, label %._crit_edge.us, label %18, !llvm.loop !42

._crit_edge.us:                                   ; preds = %24
  %26 = tail call i32 (ptr, ...) @printf(ptr noundef nonnull dereferenceable(1) @.str.4, i32 noundef %15)
  %indvars.iv.next = add nuw nsw i64 %indvars.iv, 1
  %.val.us = load i32, ptr %4, align 4, !tbaa !26
  %27 = sext i32 %.val.us to i64
  %28 = icmp slt i64 %indvars.iv.next, %27
  br i1 %28, label %.lr.ph.us, label %.critedge, !llvm.loop !43

default.unreachable:                              ; preds = %18
  unreachable

.lr.ph30.split:                                   ; preds = %.lr.ph30, %.lr.ph30.split
  %.028 = phi i32 [ %30, %.lr.ph30.split ], [ 0, %.lr.ph30 ]
  %29 = tail call i32 (ptr, ...) @printf(ptr noundef nonnull dereferenceable(1) @.str.4, i32 noundef %15)
  %30 = add nuw nsw i32 %.028, 1
  %.val = load i32, ptr %4, align 4, !tbaa !26
  %31 = icmp slt i32 %30, %.val
  br i1 %31, label %.lr.ph30.split, label %.critedge, !llvm.loop !43

.critedge:                                        ; preds = %.lr.ph30.split, %._crit_edge.us, %11, %9
  ret void
}